; Function Attrs: null_pointer_is_valid sspstrong uwtable
define noundef zeroext i1 @uat_fld_chk_num_signed_dec64(ptr noundef readnone captures(none) %0, ptr noundef %1, i32 noundef %2, ptr noundef readnone captures(none) %3, ptr noundef readnone captures(none) %4, ptr noundef writeonly captures(none) %5) local_unnamed_addr #0 {
  %7 = alloca ptr, align 8
  %8 = alloca i64, align 8
  %.not = icmp eq i32 %2, 0
  br i1 %.not, label %22, label %9

9:                                                ; preds = %6
  %10 = zext i32 %2 to i64
  %11 = tail call noalias ptr @g_strndup(ptr noundef %1, i64 noundef %10)
  call void @llvm.lifetime.start.p0(i64 8, ptr nonnull %7) #17
  call void @llvm.lifetime.start.p0(i64 8, ptr nonnull %8) #17
  %12 = call zeroext i1 @ws_strtoi64(ptr noundef %11, ptr noundef nonnull %7, ptr noundef nonnull %8)
  br i1 %12, label %13, label %17

13:                                               ; preds = %9
  %14 = load ptr, ptr %7, align 8
  %15 = load i8, ptr %14, align 1
  switch i8 %15, label %.thread.i [
    i8 0, label %uat_fld_chk_num_check_result.exit
    i8 32, label %uat_fld_chk_num_check_result.exit
  ]

.thread.i:                                        ; preds = %13
  %16 = tail call ptr @__errno_location() #19
  store i32 22, ptr %16, align 4
  br label %.thread13.sink.split.i

17:                                               ; preds = %9
  %.pre.i = tail call ptr @__errno_location() #19
  %.pr.i = load i32, ptr %.pre.i, align 4
  switch i32 %.pr.i, label %19 [
    i32 22, label %.thread13.sink.split.i
    i32 34, label %18
  ]

18:                                               ; preds = %17
  br label %.thread13.sink.split.i

19:                                               ; preds = %17
  %20 = call ptr @g_strerror(i32 noundef %.pr.i) #19
  br label %.thread13.sink.split.i

.thread13.sink.split.i:                           ; preds = %19, %18, %17, %.thread.i
  %.str.35.sink.i = phi ptr [ @.str.36, %18 ], [ %20, %19 ], [ @.str.35, %.thread.i ], [ @.str.35, %17 ]
  %21 = call noalias ptr @g_strdup(ptr noundef %.str.35.sink.i)
  store ptr %21, ptr %5, align 8
  br label %uat_fld_chk_num_check_result.exit

uat_fld_chk_num_check_result.exit:                ; preds = %13, %13, %.thread13.sink.split.i
  %.0.shrunk11.i = phi i1 [ true, %13 ], [ true, %13 ], [ false, %.thread13.sink.split.i ]
  call void @g_free(ptr noundef %11)
  call void @llvm.lifetime.end.p0(i64 8, ptr nonnull %8) #17
  call void @llvm.lifetime.end.p0(i64 8, ptr nonnull %7) #17
  br label %23

22:                                               ; preds = %6
  store ptr null, ptr %5, align 8
  br label %23

23:                                               ; preds = %22, %uat_fld_chk_num_check_result.exit
  %.0 = phi i1 [ %.0.shrunk11.i, %uat_fld_chk_num_check_result.exit ], [ true, %22 ]
  ret i1 %.0
}